target datalayout = "e-m:e-p270:32:32-p271:32:32-p272:64:64-i64:64-i128:128-f80:128-n8:16:32:64-S128"
target triple = "x86_64-pc-linux-gnu"

%struct._e_guid_t = type { i32, i16, i16, [8 x i8] }
%struct._address = type { i32, i32, ptr, ptr }
%struct._dcerpc_info = type { ptr, i32, i64, i8, i8, i8, i32, i32, i32, i32, i32, i32, i32, i32, ptr, ptr, ptr, ptr, %struct.anon }
%struct.anon = type { i8, ptr, ptr, ptr, i8 }
%struct._dcerpc_call_value = type { %struct._e_guid_t, i16, %struct._e_guid_t, i16, i32, %struct.nstime_t, i32, i32, ptr, ptr, ptr, i32 }
%struct.nstime_t = type { i64, i32 }
%struct._packet_info = type { ptr, ptr, i32, i32, %struct.nstime_t, %struct.nstime_t, %struct.nstime_t, i8, ptr, ptr, ptr, ptr, %struct._address, %struct._address, %struct._address, %struct._address, %struct._address, %struct._address, i32, ptr, i8, [3 x i8], %struct.anon.0, i32, i32, i32, i32, ptr, i8, ptr, ptr, i16, i16, i32, i32, i16, i32, i32, ptr, ptr, ptr, i8, i8, i16, i16, i16, i32, i16, i16, ptr, ptr, ptr, ptr, ptr, i32, i32 }
%struct.anon.0 = type { i8, [3 x i8] }
%struct._frame_data = type <{ i32, i32, i32, i32, i32, [4 x i8], i64, ptr, ptr, ptr, i8, i16, [5 x i8], %struct.nstime_t, %struct.nstime_t, i32, i32 }>
%struct._proto_node = type { ptr, ptr, ptr, ptr, ptr, ptr, ptr }

@.str.9 = private unnamed_addr constant [5 x i8] c": %s\00", align 1
@.str.10 = private unnamed_addr constant [5 x i8] c", %s\00", align 1
@.str.11 = private unnamed_addr constant [4 x i8] c" %s\00", align 1

; Function Attrs: null_pointer_is_valid sspstrong uwtable
define hidden i32 @PIDL_dissect_cvstring(ptr noundef %0, i32 noundef %1, ptr noundef %2, ptr noundef %3, ptr noundef %4, ptr noundef %5, i32 noundef %6, i32 noundef %7, i32 noundef %8) #0 {
  %10 = alloca ptr, align 8
  %11 = alloca i32, align 4
  %12 = alloca ptr, align 8
  %13 = alloca ptr, align 8
  %14 = alloca ptr, align 8
  %15 = alloca ptr, align 8
  %16 = alloca i32, align 4
  %17 = alloca i32, align 4
  %18 = alloca i32, align 4
  %19 = alloca ptr, align 8
  %20 = alloca i32, align 4
  %21 = alloca ptr, align 8
  store ptr %0, ptr %10, align 8
  store i32 %1, ptr %11, align 4
  store ptr %2, ptr %12, align 8
  store ptr %3, ptr %13, align 8
  store ptr %4, ptr %14, align 8
  store ptr %5, ptr %15, align 8
  store i32 %6, ptr %16, align 4
  store i32 %7, ptr %17, align 4
  store i32 %8, ptr %18, align 4
  call void @llvm.lifetime.start.p0(i64 8, ptr %19) #19
  store ptr null, ptr %19, align 8
  call void @llvm.lifetime.start.p0(i64 4, ptr %20) #19
  %22 = load i32, ptr %18, align 4
  %23 = and i32 %22, 65535
  store i32 %23, ptr %20, align 4
  %24 = load ptr, ptr %10, align 8
  %25 = load i32, ptr %11, align 4
  %26 = load ptr, ptr %12, align 8
  %27 = load ptr, ptr %13, align 8
  %28 = load ptr, ptr %14, align 8
  %29 = load ptr, ptr %15, align 8
  %30 = load i32, ptr %16, align 4
  %31 = load i32, ptr %17, align 4
  %32 = call i32 @dissect_ndr_cvstring(ptr noundef %24, i32 noundef %25, ptr noundef %26, ptr noundef %27, ptr noundef %28, ptr noundef %29, i32 noundef %30, i32 noundef %31, i1 noundef zeroext false, ptr noundef %19)
  store i32 %32, ptr %11, align 4
  %33 = load ptr, ptr %14, align 8
  %34 = getelementptr inbounds nuw %struct._dcerpc_info, ptr %33, i32 0, i32 4
  %35 = load i8, ptr %34, align 1, !range !11, !noundef !12
  %36 = trunc i8 %35 to i1
  br i1 %36, label %116, label %37

37:                                               ; preds = %9
  %38 = load i32, ptr %18, align 4
  %39 = and i32 %38, 268435456
  %40 = icmp ne i32 %39, 0
  br i1 %40, label %41, label %46

41:                                               ; preds = %37
  %42 = load ptr, ptr %12, align 8
  %43 = getelementptr inbounds nuw %struct._packet_info, ptr %42, i32 0, i32 1
  %44 = load ptr, ptr %43, align 8
  %45 = load ptr, ptr %19, align 8
  call void (ptr, i32, ptr, ...) @col_append_fstr(ptr noundef %44, i32 noundef 25, ptr noundef @.str.10, ptr noundef %45)
  br label %46

46:                                               ; preds = %41, %37
  %47 = load i32, ptr %18, align 4
  %48 = and i32 %47, 536870912
  %49 = icmp ne i32 %48, 0
  br i1 %49, label %50, label %69

50:                                               ; preds = %46
  %51 = load ptr, ptr %12, align 8
  %52 = getelementptr inbounds nuw %struct._packet_info, ptr %51, i32 0, i32 8
  %53 = load ptr, ptr %52, align 8
  %54 = getelementptr inbounds nuw %struct._frame_data, ptr %53, i32 0, i32 11
  %55 = load i16, ptr %54, align 1
  %56 = lshr i16 %55, 3
  %57 = and i16 %56, 1
  %58 = zext i16 %57 to i32
  %59 = icmp ne i32 %58, 0
  br i1 %59, label %69, label %60

60:                                               ; preds = %50
  call void @llvm.lifetime.start.p0(i64 8, ptr %21) #19
  %61 = load ptr, ptr %14, align 8
  %62 = getelementptr inbounds nuw %struct._dcerpc_info, ptr %61, i32 0, i32 14
  %63 = load ptr, ptr %62, align 8
  store ptr %63, ptr %21, align 8
  %64 = call ptr @wmem_file_scope()
  %65 = load ptr, ptr %19, align 8
  %66 = call noalias ptr @wmem_strdup(ptr noundef %64, ptr noundef %65)
  %67 = load ptr, ptr %21, align 8
  %68 = getelementptr inbounds nuw %struct._dcerpc_call_value, ptr %67, i32 0, i32 9
  store ptr %66, ptr %68, align 8
  call void @llvm.lifetime.end.p0(i64 8, ptr %21) #19
  br label %69

69:                                               ; preds = %60, %50, %46
  %70 = load i32, ptr %20, align 4
  %71 = icmp sgt i32 %70, 0
  br i1 %71, label %72, label %115

72:                                               ; preds = %69
  %73 = load ptr, ptr %13, align 8
  %74 = icmp ne ptr %73, null
  br i1 %74, label %75, label %115

75:                                               ; preds = %72
  %76 = load ptr, ptr %19, align 8
  %77 = icmp ne ptr %76, null
  br i1 %77, label %78, label %115

78:                                               ; preds = %75
  %79 = load ptr, ptr %19, align 8
  %80 = getelementptr i8, ptr %79, i64 0
  %81 = load i8, ptr %80, align 1
  %82 = sext i8 %81 to i32
  %83 = icmp ne i32 %82, 0
  br i1 %83, label %84, label %115

84:                                               ; preds = %78
  %85 = load ptr, ptr %13, align 8
  %86 = load ptr, ptr %19, align 8
  call void (ptr, ptr, ...) @proto_item_append_text(ptr noundef %85, ptr noundef @.str.9, ptr noundef %86)
  %87 = load ptr, ptr %13, align 8
  %88 = getelementptr inbounds nuw %struct._proto_node, ptr %87, i32 0, i32 3
  %89 = load ptr, ptr %88, align 8
  store ptr %89, ptr %13, align 8
  %90 = load i32, ptr %20, align 4
  %91 = add i32 %90, -1
  store i32 %91, ptr %20, align 4
  %92 = load i32, ptr %20, align 4
  %93 = icmp sgt i32 %92, 0
  br i1 %93, label %94, label %114

94:                                               ; preds = %84
  %95 = load ptr, ptr %13, align 8
  %96 = load ptr, ptr %19, align 8
  call void (ptr, ptr, ...) @proto_item_append_text(ptr noundef %95, ptr noundef @.str.9, ptr noundef %96)
  %97 = load ptr, ptr %13, align 8
  %98 = getelementptr inbounds nuw %struct._proto_node, ptr %97, i32 0, i32 3
  %99 = load ptr, ptr %98, align 8
  store ptr %99, ptr %13, align 8
  %100 = load i32, ptr %20, align 4
  %101 = add i32 %100, -1
  store i32 %101, ptr %20, align 4
  br label %102

102:                                              ; preds = %105, %94
  %103 = load i32, ptr %20, align 4
  %104 = icmp sgt i32 %103, 0
  br i1 %104, label %105, label %113

105:                                              ; preds = %102
  %106 = load ptr, ptr %13, align 8
  %107 = load ptr, ptr %19, align 8
  call void (ptr, ptr, ...) @proto_item_append_text(ptr noundef %106, ptr noundef @.str.11, ptr noundef %107)
  %108 = load ptr, ptr %13, align 8
  %109 = getelementptr inbounds nuw %struct._proto_node, ptr %108, i32 0, i32 3
  %110 = load ptr, ptr %109, align 8
  store ptr %110, ptr %13, align 8
  %111 = load i32, ptr %20, align 4
  %112 = add i32 %111, -1
  store i32 %112, ptr %20, align 4
  br label %102, !llvm.loop !16

113:                                              ; preds = %102
  br label %114

114:                                              ; preds = %113, %84
  br label %115

115:                                              ; preds = %114, %78, %75, %72, %69
  br label %116

116:                                              ; preds = %115, %9
  %117 = load i32, ptr %11, align 4
  call void @llvm.lifetime.end.p0(i64 4, ptr %20) #19
  call void @llvm.lifetime.end.p0(i64 8, ptr %19) #19
  ret i32 %117
}