; Function Attrs: null_pointer_is_valid sspstrong uwtable
define hidden noundef i32 @PIDL_dissect_cvstring(ptr noundef %0, i32 noundef %1, ptr noundef %2, ptr noundef %3, ptr noundef %4, ptr noundef %5, i32 noundef %6, i32 noundef %7, i32 noundef %8) local_unnamed_addr #0 {
  %10 = alloca ptr, align 8
  call void @llvm.lifetime.start.p0(i64 8, ptr nonnull %10) #19
  store ptr null, ptr %10, align 8
  %11 = and i32 %8, 65535
  %12 = call i32 @dissect_ndr_cvstring(ptr noundef %0, i32 noundef %1, ptr noundef %2, ptr noundef %3, ptr noundef %4, ptr noundef %5, i32 noundef %6, i32 noundef %7, i1 noundef zeroext false, ptr noundef nonnull %10)
  %13 = getelementptr inbounds nuw i8, ptr %4, i64 25
  %14 = load i8, ptr %13, align 1, !range !11, !noundef !12
  %15 = trunc nuw i8 %14 to i1
  br i1 %15, label %.loopexit, label %16

16:                                               ; preds = %9
  %17 = and i32 %8, 268435456
  %.not = icmp eq i32 %17, 0
  br i1 %.not, label %22, label %18

18:                                               ; preds = %16
  %19 = getelementptr inbounds nuw i8, ptr %2, i64 8
  %20 = load ptr, ptr %19, align 8
  %21 = load ptr, ptr %10, align 8
  call void (ptr, i32, ptr, ...) @col_append_fstr(ptr noundef %20, i32 noundef 25, ptr noundef nonnull @.str.10, ptr noundef %21)
  br label %22

22:                                               ; preds = %18, %16
  %23 = and i32 %8, 536870912
  %.not37 = icmp eq i32 %23, 0
  br i1 %.not37, label %37, label %24

24:                                               ; preds = %22
  %25 = getelementptr inbounds nuw i8, ptr %2, i64 80
  %26 = load ptr, ptr %25, align 8
  %27 = getelementptr inbounds nuw i8, ptr %26, i64 57
  %28 = load i16, ptr %27, align 1
  %29 = and i16 %28, 8
  %.not38 = icmp eq i16 %29, 0
  br i1 %.not38, label %30, label %37

30:                                               ; preds = %24
  %31 = getelementptr inbounds nuw i8, ptr %4, i64 64
  %32 = load ptr, ptr %31, align 8
  %33 = call ptr @wmem_file_scope()
  %34 = load ptr, ptr %10, align 8
  %35 = call noalias ptr @wmem_strdup(ptr noundef %33, ptr noundef %34)
  %36 = getelementptr inbounds nuw i8, ptr %32, i64 80
  store ptr %35, ptr %36, align 8
  br label %37

37:                                               ; preds = %30, %24, %22
  %38 = icmp ne i32 %11, 0
  %39 = icmp ne ptr %3, null
  %or.cond = and i1 %39, %38
  %40 = load ptr, ptr %10, align 8
  %41 = icmp ne ptr %40, null
  %or.cond3 = select i1 %or.cond, i1 %41, i1 false
  br i1 %or.cond3, label %42, label %.loopexit

42:                                               ; preds = %37
  %43 = load i8, ptr %40, align 1
  %.not39 = icmp eq i8 %43, 0
  br i1 %.not39, label %.loopexit, label %44

44:                                               ; preds = %42
  call void (ptr, ptr, ...) @proto_item_append_text(ptr noundef nonnull %3, ptr noundef nonnull @.str.9, ptr noundef nonnull %40)
  %45 = icmp samesign ugt i32 %11, 1
  br i1 %45, label %46, label %.loopexit

46:                                               ; preds = %44
  %47 = getelementptr inbounds nuw i8, ptr %3, i64 24
  %48 = load ptr, ptr %47, align 8
  %49 = load ptr, ptr %10, align 8
  call void (ptr, ptr, ...) @proto_item_append_text(ptr noundef %48, ptr noundef nonnull @.str.9, ptr noundef %49)
  %.not42 = icmp eq i32 %11, 2
  br i1 %.not42, label %.loopexit, label %.lr.ph.preheader

.lr.ph.preheader:                                 ; preds = %46
  %50 = add nsw i32 %11, -2
  br label %.lr.ph

.lr.ph:                                           ; preds = %.lr.ph.preheader, %.lr.ph
  %.041 = phi i32 [ %52, %.lr.ph ], [ %50, %.lr.ph.preheader ]
  %.pn40 = phi ptr [ %.032, %.lr.ph ], [ %48, %.lr.ph.preheader ]
  %.032.in = getelementptr inbounds nuw i8, ptr %.pn40, i64 24
  %.032 = load ptr, ptr %.032.in, align 8
  %51 = load ptr, ptr %10, align 8
  call void (ptr, ptr, ...) @proto_item_append_text(ptr noundef %.032, ptr noundef nonnull @.str.11, ptr noundef %51)
  %52 = add nsw i32 %.041, -1
  %53 = icmp samesign ugt i32 %.041, 1
  br i1 %53, label %.lr.ph, label %.loopexit, !llvm.loop !16

.loopexit:                                        ; preds = %.lr.ph, %46, %37, %42, %44, %9
  call void @llvm.lifetime.end.p0(i64 8, ptr nonnull %10) #19
  ret i32 %12
}